; Function Attrs: nounwind uwtable
define dso_local noundef zeroext i1 @brin_start_evacuating_page(ptr noundef readnone captures(none) %0, i32 noundef %1) local_unnamed_addr #0 {
  %3 = icmp slt i32 %1, 0
  br i1 %3, label %4, label %10

4:                                                ; preds = %2
  %5 = load ptr, ptr @LocalBufferBlockPointers, align 8
  %6 = xor i32 %1, -1
  %7 = zext nneg i32 %6 to i64
  %8 = getelementptr inbounds nuw ptr, ptr %5, i64 %7
  %9 = load ptr, ptr %8, align 8
  br label %BufferGetPage.exit

10:                                               ; preds = %2
  %11 = load ptr, ptr @BufferBlocks, align 8
  %12 = add nsw i32 %1, -1
  %13 = sext i32 %12 to i64
  %14 = shl nsw i64 %13, 13
  %15 = getelementptr inbounds nuw i8, ptr %11, i64 %14
  br label %BufferGetPage.exit

BufferGetPage.exit:                               ; preds = %4, %10
  %.0.i.i = phi ptr [ %9, %4 ], [ %15, %10 ]
  %16 = getelementptr i8, ptr %.0.i.i, i64 14
  %.val17 = load i16, ptr %16, align 2
  %17 = icmp eq i16 %.val17, 0
  br i1 %17, label %.loopexit, label %18

18:                                               ; preds = %BufferGetPage.exit
  %19 = getelementptr i8, ptr %.0.i.i, i64 12
  %.val = load i16, ptr %19, align 4
  %20 = icmp ult i16 %.val, 25
  %21 = zext i16 %.val to i32
  %22 = add nuw nsw i32 %21, 262120
  %23 = lshr i32 %22, 2
  %24 = trunc i32 %23 to i16
  %.not1820 = icmp eq i16 %24, 0
  %.not18 = select i1 %20, i1 true, i1 %.not1820
  br i1 %.not18, label %.loopexit, label %.critedge.lr.ph

.critedge.lr.ph:                                  ; preds = %18
  %25 = getelementptr inbounds nuw i8, ptr %.0.i.i, i64 24
  br label %.critedge

26:                                               ; preds = %.critedge
  %27 = add i16 %.01519, 1
  %.not = icmp ugt i16 %27, %24
  br i1 %.not, label %.loopexit, label %.critedge, !llvm.loop !10

.critedge:                                        ; preds = %.critedge.lr.ph, %26
  %.01519 = phi i16 [ 1, %.critedge.lr.ph ], [ %27, %26 ]
  %28 = zext i16 %.01519 to i64
  %29 = add nsw i64 %28, -1
  %30 = getelementptr inbounds [0 x %struct.ItemIdData], ptr %25, i64 0, i64 %29
  %31 = load i32, ptr %30, align 4
  %32 = and i32 %31, 98304
  %.not16 = icmp eq i32 %32, 0
  br i1 %.not16, label %26, label %33

33:                                               ; preds = %.critedge
  %34 = getelementptr inbounds nuw i8, ptr %.0.i.i, i64 16
  %35 = load i16, ptr %34, align 4
  %36 = zext i16 %35 to i64
  %37 = getelementptr inbounds nuw i8, ptr %.0.i.i, i64 %36
  %38 = getelementptr inbounds nuw i8, ptr %37, i64 4
  %39 = load i16, ptr %38, align 2
  %40 = or i16 %39, 1
  store i16 %40, ptr %38, align 2
  tail call void @MarkBufferDirtyHint(i32 noundef %1, i1 noundef zeroext true) #5
  br label %.loopexit

.loopexit:                                        ; preds = %26, %18, %33, %BufferGetPage.exit
  %.0 = phi i1 [ true, %33 ], [ false, %BufferGetPage.exit ], [ false, %18 ], [ false, %26 ]
  ret i1 %.0
}